target datalayout = "e-m:e-p270:32:32-p271:32:32-p272:64:64-i64:64-i128:128-f80:128-n8:16:32:64-S128"
target triple = "x86_64-pc-linux-gnu"

%class.anon = type { i8 }
%class.anon.104 = type { i8 }
%class.anon.106 = type { i8 }
%class.anon.108 = type { ptr, ptr, ptr }
%class.anon.109 = type { ptr, ptr, ptr, ptr, ptr, ptr, ptr }

; Function Attrs: mustprogress nounwind uwtable
define hidden noundef ptr @_ZN4llvm16InstCombinerImpl23foldBinOpShiftWithShiftERNS_14BinaryOperatorE(ptr noundef nonnull align 8 dereferenceable(1088) %0, ptr noundef nonnull align 8 dereferenceable(72) %1) #1 align 2 {
  %3 = alloca ptr, align 8
  %4 = alloca ptr, align 8
  %5 = alloca ptr, align 8
  %6 = alloca ptr, align 8
  %7 = alloca %class.anon, align 1
  %8 = alloca %class.anon.104, align 1
  %9 = alloca %class.anon.106, align 1
  %10 = alloca %class.anon.108, align 8
  %11 = alloca %class.anon.109, align 8
  %12 = alloca ptr, align 8
  store ptr %0, ptr %4, align 8
  store ptr %1, ptr %5, align 8
  %13 = load ptr, ptr %4, align 8
  %14 = load ptr, ptr %5, align 8
  %15 = call noundef nonnull align 8 dereferenceable(512) ptr @_ZNK4llvm11Instruction13getDataLayoutEv(ptr noundef nonnull align 8 dereferenceable(72) %14)
  store ptr %15, ptr %6, align 8
  %16 = getelementptr inbounds nuw %class.anon.108, ptr %10, i32 0, i32 0
  store ptr %8, ptr %16, align 8
  %17 = getelementptr inbounds nuw %class.anon.108, ptr %10, i32 0, i32 1
  store ptr %9, ptr %17, align 8
  %18 = getelementptr inbounds nuw %class.anon.108, ptr %10, i32 0, i32 2
  %19 = load ptr, ptr %6, align 8
  store ptr %19, ptr %18, align 8
  %20 = getelementptr inbounds nuw %class.anon.109, ptr %11, i32 0, i32 0
  %21 = load ptr, ptr %5, align 8
  store ptr %21, ptr %20, align 8
  %22 = getelementptr inbounds nuw %class.anon.109, ptr %11, i32 0, i32 1
  store ptr %7, ptr %22, align 8
  %23 = getelementptr inbounds nuw %class.anon.109, ptr %11, i32 0, i32 2
  store ptr %13, ptr %23, align 8
  %24 = getelementptr inbounds nuw %class.anon.109, ptr %11, i32 0, i32 3
  store ptr %8, ptr %24, align 8
  %25 = getelementptr inbounds nuw %class.anon.109, ptr %11, i32 0, i32 4
  store ptr %10, ptr %25, align 8
  %26 = getelementptr inbounds nuw %class.anon.109, ptr %11, i32 0, i32 5
  store ptr %9, ptr %26, align 8
  %27 = getelementptr inbounds nuw %class.anon.109, ptr %11, i32 0, i32 6
  %28 = load ptr, ptr %6, align 8
  store ptr %28, ptr %27, align 8
  %29 = call noundef ptr @"_ZZN4llvm16InstCombinerImpl23foldBinOpShiftWithShiftERNS_14BinaryOperatorEENK3$_0clEj"(ptr noundef nonnull align 8 dereferenceable(56) %11, i32 noundef 0)
  store ptr %29, ptr %12, align 8
  %30 = load ptr, ptr %12, align 8
  %31 = icmp ne ptr %30, null
  br i1 %31, label %32, label %34

32:                                               ; preds = %2
  %33 = load ptr, ptr %12, align 8
  store ptr %33, ptr %3, align 8
  br label %36

34:                                               ; preds = %2
  %35 = call noundef ptr @"_ZZN4llvm16InstCombinerImpl23foldBinOpShiftWithShiftERNS_14BinaryOperatorEENK3$_0clEj"(ptr noundef nonnull align 8 dereferenceable(56) %11, i32 noundef 1)
  store ptr %35, ptr %3, align 8
  br label %36

36:                                               ; preds = %34, %32
  %37 = load ptr, ptr %3, align 8
  ret ptr %37
}