; Function Attrs: mustprogress nounwind uwtable
define hidden noundef ptr @_ZN4llvm16InstCombinerImpl23foldBinOpShiftWithShiftERNS_14BinaryOperatorE(ptr noundef nonnull align 8 dereferenceable(1088) %0, ptr noundef nonnull align 8 dereferenceable(72) %1) local_unnamed_addr #0 align 2 {
  %3 = alloca %class.anon, align 1
  %4 = alloca %class.anon.104, align 1
  %5 = alloca %class.anon.106, align 1
  %6 = alloca %class.anon.108, align 8
  %7 = alloca %class.anon.109, align 8
  %8 = tail call noundef nonnull align 8 dereferenceable(512) ptr @_ZNK4llvm11Instruction13getDataLayoutEv(ptr noundef nonnull align 8 dereferenceable(72) %1) #27
  store ptr %4, ptr %6, align 8
  %9 = getelementptr inbounds nuw i8, ptr %6, i64 8
  store ptr %5, ptr %9, align 8
  %10 = getelementptr inbounds nuw i8, ptr %6, i64 16
  store ptr %8, ptr %10, align 8
  store ptr %1, ptr %7, align 8
  %11 = getelementptr inbounds nuw i8, ptr %7, i64 8
  store ptr %3, ptr %11, align 8
  %12 = getelementptr inbounds nuw i8, ptr %7, i64 16
  store ptr %0, ptr %12, align 8
  %13 = getelementptr inbounds nuw i8, ptr %7, i64 24
  store ptr %4, ptr %13, align 8
  %14 = getelementptr inbounds nuw i8, ptr %7, i64 32
  store ptr %6, ptr %14, align 8
  %15 = getelementptr inbounds nuw i8, ptr %7, i64 40
  store ptr %5, ptr %15, align 8
  %16 = getelementptr inbounds nuw i8, ptr %7, i64 48
  store ptr %8, ptr %16, align 8
  %17 = call fastcc noundef ptr @"_ZZN4llvm16InstCombinerImpl23foldBinOpShiftWithShiftERNS_14BinaryOperatorEENK3$_0clEj"(ptr noundef nonnull align 8 dereferenceable(56) %7, i32 noundef 0)
  %.not = icmp eq ptr %17, null
  br i1 %.not, label %18, label %20

18:                                               ; preds = %2
  %19 = call fastcc noundef ptr @"_ZZN4llvm16InstCombinerImpl23foldBinOpShiftWithShiftERNS_14BinaryOperatorEENK3$_0clEj"(ptr noundef nonnull align 8 dereferenceable(56) %7, i32 noundef 1)
  br label %20

20:                                               ; preds = %2, %18
  %.0 = phi ptr [ %19, %18 ], [ %17, %2 ]
  ret ptr %.0
}